target datalayout = "e-m:e-p270:32:32-p271:32:32-p272:64:64-i64:64-i128:128-f80:128-n8:16:32:64-S128"
target triple = "x86_64-pc-linux-gnu"

%struct.nstime_t = type { i64 }
%struct.timespec = type { i64, i64 }

; Function Attrs: nounwind uwtable
define internal void @nstime_set_initialized(ptr noundef %0) #0 {
  %2 = alloca ptr, align 8
  store ptr %0, ptr %2, align 8, !tbaa !3
  ret void
}

; Function Attrs: nounwind uwtable
define internal void @nstime_pair_assert_initialized(ptr noundef %0, ptr noundef %1) #0 {
  %3 = alloca ptr, align 8
  %4 = alloca ptr, align 8
  store ptr %0, ptr %3, align 8, !tbaa !3
  store ptr %1, ptr %4, align 8, !tbaa !3
  %5 = load ptr, ptr %3, align 8, !tbaa !3
  call void @nstime_assert_initialized(ptr noundef %5)
  %6 = load ptr, ptr %4, align 8, !tbaa !3
  call void @nstime_assert_initialized(ptr noundef %6)
  ret void
}

; Function Attrs: nounwind uwtable
define void @duckdb_je_nstime_init2(ptr noundef %0, i64 noundef %1, i64 noundef %2) #0 {
  %4 = alloca ptr, align 8
  %5 = alloca i64, align 8
  %6 = alloca i64, align 8
  store ptr %0, ptr %4, align 8, !tbaa !3
  store i64 %1, ptr %5, align 8, !tbaa !7
  store i64 %2, ptr %6, align 8, !tbaa !7
  %7 = load ptr, ptr %4, align 8, !tbaa !3
  call void @nstime_set_initialized(ptr noundef %7)
  %8 = load i64, ptr %5, align 8, !tbaa !7
  %9 = mul i64 %8, 1000000000
  %10 = load i64, ptr %6, align 8, !tbaa !7
  %11 = add i64 %9, %10
  %12 = load ptr, ptr %4, align 8, !tbaa !3
  %13 = getelementptr inbounds nuw %struct.nstime_t, ptr %12, i32 0, i32 0
  store i64 %11, ptr %13, align 8, !tbaa !9
  ret void
}

; Function Attrs: nounwind uwtable
define internal void @nstime_assert_initialized(ptr noundef %0) #0 {
  %2 = alloca ptr, align 8
  store ptr %0, ptr %2, align 8, !tbaa !3
  ret void
}

; Function Attrs: nounwind uwtable
define i32 @duckdb_je_nstime_compare(ptr noundef %0, ptr noundef %1) #0 {
  %3 = alloca ptr, align 8
  %4 = alloca ptr, align 8
  store ptr %0, ptr %3, align 8, !tbaa !3
  store ptr %1, ptr %4, align 8, !tbaa !3
  %5 = load ptr, ptr %3, align 8, !tbaa !3
  %6 = load ptr, ptr %4, align 8, !tbaa !3
  call void @nstime_pair_assert_initialized(ptr noundef %5, ptr noundef %6)
  %7 = load ptr, ptr %3, align 8, !tbaa !3
  %8 = getelementptr inbounds nuw %struct.nstime_t, ptr %7, i32 0, i32 0
  %9 = load i64, ptr %8, align 8, !tbaa !9
  %10 = load ptr, ptr %4, align 8, !tbaa !3
  %11 = getelementptr inbounds nuw %struct.nstime_t, ptr %10, i32 0, i32 0
  %12 = load i64, ptr %11, align 8, !tbaa !9
  %13 = icmp ugt i64 %9, %12
  %14 = zext i1 %13 to i32
  %15 = load ptr, ptr %3, align 8, !tbaa !3
  %16 = getelementptr inbounds nuw %struct.nstime_t, ptr %15, i32 0, i32 0
  %17 = load i64, ptr %16, align 8, !tbaa !9
  %18 = load ptr, ptr %4, align 8, !tbaa !3
  %19 = getelementptr inbounds nuw %struct.nstime_t, ptr %18, i32 0, i32 0
  %20 = load i64, ptr %19, align 8, !tbaa !9
  %21 = icmp ult i64 %17, %20
  %22 = zext i1 %21 to i32
  %23 = sub nsw i32 %14, %22
  ret i32 %23
}

; Function Attrs: nounwind uwtable
define internal void @nstime_get(ptr noundef %0) #0 {
  %2 = alloca ptr, align 8
  %3 = alloca %struct.timespec, align 8
  store ptr %0, ptr %2, align 8, !tbaa !3
  call void @llvm.lifetime.start.p0(i64 16, ptr %3) #6
  %4 = call i32 @clock_gettime(i32 noundef 6, ptr noundef %3) #6
  %5 = load ptr, ptr %2, align 8, !tbaa !3
  %6 = getelementptr inbounds nuw %struct.timespec, ptr %3, i32 0, i32 0
  %7 = load i64, ptr %6, align 8, !tbaa !14
  %8 = getelementptr inbounds nuw %struct.timespec, ptr %3, i32 0, i32 1
  %9 = load i64, ptr %8, align 8, !tbaa !16
  call void @duckdb_je_nstime_init2(ptr noundef %5, i64 noundef %7, i64 noundef %9)
  call void @llvm.lifetime.end.p0(i64 16, ptr %3) #6
  ret void
}

; Function Attrs: nounwind uwtable
define void @duckdb_je_nstime_copy(ptr noundef %0, ptr noundef %1) #0 {
  %3 = alloca ptr, align 8
  %4 = alloca ptr, align 8
  store ptr %0, ptr %3, align 8, !tbaa !3
  store ptr %1, ptr %4, align 8, !tbaa !3
  %5 = load ptr, ptr %4, align 8, !tbaa !3
  call void @nstime_assert_initialized(ptr noundef %5)
  %6 = load ptr, ptr %3, align 8, !tbaa !3
  %7 = load ptr, ptr %4, align 8, !tbaa !3
  call void @llvm.memcpy.p0.p0.i64(ptr align 8 %6, ptr align 8 %7, i64 8, i1 false), !tbaa.struct !11
  %8 = load ptr, ptr %3, align 8, !tbaa !3
  call void @nstime_assert_initialized(ptr noundef %8)
  ret void
}

; Function Attrs: nounwind uwtable
define internal void @nstime_update_impl(ptr noundef %0) #0 {
  %2 = alloca ptr, align 8
  %3 = alloca %struct.nstime_t, align 8
  store ptr %0, ptr %2, align 8, !tbaa !3
  call void @llvm.lifetime.start.p0(i64 8, ptr %3) #6
  %4 = load ptr, ptr %2, align 8, !tbaa !3
  call void @duckdb_je_nstime_copy(ptr noundef %3, ptr noundef %4)
  %5 = load ptr, ptr %2, align 8, !tbaa !3
  call void @nstime_get(ptr noundef %5)
  %6 = load ptr, ptr %2, align 8, !tbaa !3
  %7 = call i32 @duckdb_je_nstime_compare(ptr noundef %3, ptr noundef %6)
  %8 = icmp sgt i32 %7, 0
  %9 = xor i1 %8, true
  %10 = xor i1 %9, true
  %11 = zext i1 %10 to i32
  %12 = sext i32 %11 to i64
  %13 = call i64 @llvm.expect.i64(i64 %12, i64 0)
  %14 = icmp ne i64 %13, 0
  br i1 %14, label %15, label %17

15:                                               ; preds = %1
  %16 = load ptr, ptr %2, align 8, !tbaa !3
  call void @duckdb_je_nstime_copy(ptr noundef %16, ptr noundef %3)
  br label %17

17:                                               ; preds = %15, %1
  call void @llvm.lifetime.end.p0(i64 8, ptr %3) #6
  ret void
}